; Function Attrs: nounwind uwtable
define dso_local ptr @multirange_get_typcache(ptr noundef readonly captures(none) %0, i32 noundef %1) local_unnamed_addr #0 {
  %3 = load ptr, ptr %0, align 8
  %4 = getelementptr inbounds nuw i8, ptr %3, i64 24
  %5 = load ptr, ptr %4, align 8
  %6 = icmp eq ptr %5, null
  br i1 %6, label %9, label %7

7:                                                ; preds = %2
  %8 = load i32, ptr %5, align 8
  %.not = icmp eq i32 %8, %1
  br i1 %.not, label %20, label %9

9:                                                ; preds = %7, %2
  %10 = tail call ptr @lookup_type_cache(i32 noundef %1, i32 noundef 65536) #11
  %11 = getelementptr inbounds nuw i8, ptr %10, i64 440
  %12 = load ptr, ptr %11, align 8
  %13 = icmp eq ptr %12, null
  br i1 %13, label %14, label %17

14:                                               ; preds = %9
  %15 = tail call zeroext i1 @errstart_cold(i32 noundef 21, ptr noundef null) #13
  tail call void @llvm.assume(i1 %15)
  %16 = tail call i32 (ptr, ...) @errmsg_internal(ptr noundef nonnull @.str.9, i32 noundef %1) #11
  tail call void @errfinish(ptr noundef nonnull @.str.2, i32 noundef 557, ptr noundef nonnull @__func__.multirange_get_typcache) #11
  unreachable

17:                                               ; preds = %9
  %18 = load ptr, ptr %0, align 8
  %19 = getelementptr inbounds nuw i8, ptr %18, i64 24
  store ptr %10, ptr %19, align 8
  br label %20

20:                                               ; preds = %17, %7
  %.0 = phi ptr [ %10, %17 ], [ %5, %7 ]
  ret ptr %.0
}